; Function Attrs: nounwind uwtable
define internal fastcc i32 @ssl_tls13_write_server_hello(ptr noundef %0) unnamed_addr #0 {
  %2 = alloca ptr, align 8
  %3 = alloca i64, align 8
  %4 = alloca i64, align 8
  call void @llvm.lifetime.start.p0(i64 8, ptr nonnull %2) #9
  call void @llvm.lifetime.start.p0(i64 8, ptr nonnull %3) #9
  call void @llvm.lifetime.start.p0(i64 8, ptr nonnull %4) #9
  tail call void (ptr, i32, ptr, i32, ptr, ...) @mbedtls_debug_print_msg(ptr noundef %0, i32 noundef 2, ptr noundef nonnull @.str, i32 noundef 2421, ptr noundef nonnull @.str.105) #9
  %5 = getelementptr inbounds nuw i8, ptr %0, i64 112
  %6 = load ptr, ptr %5, align 8, !tbaa !16
  %7 = getelementptr inbounds nuw i8, ptr %6, i64 2152
  %8 = load ptr, ptr %0, align 8, !tbaa !40
  %9 = getelementptr inbounds nuw i8, ptr %8, i64 56
  %10 = load ptr, ptr %9, align 8, !tbaa !73
  %11 = getelementptr inbounds nuw i8, ptr %8, i64 64
  %12 = load ptr, ptr %11, align 8, !tbaa !74
  %13 = tail call i32 %10(ptr noundef %12, ptr noundef nonnull %7, i64 noundef 32) #9
  %.not.i = icmp eq i32 %13, 0
  br i1 %.not.i, label %14, label %ssl_tls13_prepare_server_hello.exit

ssl_tls13_prepare_server_hello.exit:              ; preds = %1
  tail call void @mbedtls_debug_print_ret(ptr noundef nonnull %0, i32 noundef 1, ptr noundef nonnull @.str, i32 noundef 2019, ptr noundef nonnull @.str.107, i32 noundef %13) #9
  br label %36

14:                                               ; preds = %1
  tail call void @mbedtls_debug_print_buf(ptr noundef nonnull %0, i32 noundef 3, ptr noundef nonnull @.str, i32 noundef 2024, ptr noundef nonnull @.str.88, ptr noundef nonnull %7, i64 noundef 32) #9
  %15 = tail call i64 @time(ptr noundef null) #9
  %16 = getelementptr inbounds nuw i8, ptr %0, i64 104
  %17 = load ptr, ptr %16, align 8, !tbaa !17
  %18 = getelementptr inbounds nuw i8, ptr %17, i64 8
  store i64 %15, ptr %18, align 8, !tbaa !75
  %19 = call i32 @mbedtls_ssl_start_handshake_msg(ptr noundef nonnull %0, i8 noundef zeroext 2, ptr noundef nonnull %2, ptr noundef nonnull %3) #9
  %.not21 = icmp eq i32 %19, 0
  br i1 %.not21, label %20, label %36

20:                                               ; preds = %14
  %21 = load ptr, ptr %2, align 8, !tbaa !38
  %22 = load i64, ptr %3, align 8, !tbaa !39
  %23 = getelementptr inbounds nuw i8, ptr %21, i64 %22
  %24 = call fastcc i32 @ssl_tls13_write_server_hello_body(ptr noundef nonnull %0, ptr noundef %21, ptr noundef %23, ptr noundef %4, i32 noundef 0)
  %.not22 = icmp eq i32 %24, 0
  br i1 %.not22, label %25, label %36

25:                                               ; preds = %20
  %26 = load ptr, ptr %2, align 8, !tbaa !38
  %27 = load i64, ptr %4, align 8, !tbaa !39
  %28 = call i32 @mbedtls_ssl_add_hs_msg_to_checksum(ptr noundef nonnull %0, i32 noundef 2, ptr noundef %26, i64 noundef %27) #9
  %.not23 = icmp eq i32 %28, 0
  br i1 %.not23, label %29, label %36

29:                                               ; preds = %25
  %30 = load i64, ptr %3, align 8, !tbaa !39
  %31 = call i32 @mbedtls_ssl_finish_handshake_msg(ptr noundef nonnull %0, i64 noundef %30, i64 noundef %27) #9
  %.not24 = icmp eq i32 %31, 0
  br i1 %.not24, label %32, label %36

32:                                               ; preds = %29
  %33 = call fastcc i32 @ssl_tls13_finalize_server_hello(ptr noundef nonnull %0)
  %.not25 = icmp eq i32 %33, 0
  br i1 %.not25, label %34, label %36

34:                                               ; preds = %32
  %35 = getelementptr inbounds nuw i8, ptr %0, i64 8
  store i32 24, ptr %35, align 8, !tbaa !3
  br label %36

36:                                               ; preds = %ssl_tls13_prepare_server_hello.exit, %32, %29, %25, %20, %14, %34
  %.0 = phi i32 [ %13, %ssl_tls13_prepare_server_hello.exit ], [ %19, %14 ], [ %24, %20 ], [ %28, %25 ], [ %31, %29 ], [ %33, %32 ], [ 0, %34 ]
  call void (ptr, i32, ptr, i32, ptr, ...) @mbedtls_debug_print_msg(ptr noundef nonnull %0, i32 noundef 2, ptr noundef nonnull @.str, i32 noundef 2454, ptr noundef nonnull @.str.106) #9
  call void @llvm.lifetime.end.p0(i64 8, ptr nonnull %4) #9
  call void @llvm.lifetime.end.p0(i64 8, ptr nonnull %3) #9
  call void @llvm.lifetime.end.p0(i64 8, ptr nonnull %2) #9
  ret i32 %.0
}